; Function Attrs: nofree norecurse nosync nounwind memory(read, inaccessiblemem: none) uwtable
define i32 @Fra_OneHotCount(ptr noundef readnone captures(none) %0, ptr noundef readonly captures(none) %1) local_unnamed_addr #6 {
  %3 = getelementptr i8, ptr %1, i64 4
  %.val = load i32, ptr %3, align 4, !tbaa !33
  %4 = icmp sgt i32 %.val, 0
  br i1 %4, label %.lr.ph, label %._crit_edge

.lr.ph:                                           ; preds = %2
  %5 = getelementptr i8, ptr %1, i64 8
  %.val13 = load ptr, ptr %5, align 8, !tbaa !36
  %6 = zext nneg i32 %.val to i64
  br label %7

7:                                                ; preds = %.lr.ph, %7
  %indvars.iv = phi i64 [ 0, %.lr.ph ], [ %indvars.iv.next, %7 ]
  %.016 = phi i32 [ 0, %.lr.ph ], [ %spec.select, %7 ]
  %8 = getelementptr inbounds nuw i32, ptr %.val13, i64 %indvars.iv
  %9 = load i32, ptr %8, align 4, !tbaa !16
  %10 = or disjoint i64 %indvars.iv, 1
  %11 = getelementptr inbounds nuw i32, ptr %.val13, i64 %10
  %12 = load i32, ptr %11, align 4, !tbaa !16
  %13 = icmp ne i32 %9, 0
  %14 = icmp ne i32 %12, 0
  %or.cond.not = select i1 %13, i1 true, i1 %14
  %15 = zext i1 %or.cond.not to i32
  %spec.select = add nuw nsw i32 %.016, %15
  %indvars.iv.next = add nuw nsw i64 %indvars.iv, 2
  %16 = icmp samesign ult i64 %indvars.iv.next, %6
  br i1 %16, label %7, label %._crit_edge, !llvm.loop !65

._crit_edge:                                      ; preds = %7, %2
  %.0.lcssa = phi i32 [ 0, %2 ], [ %spec.select, %7 ]
  ret i32 %.0.lcssa
}